target datalayout = "e-m:e-p270:32:32-p271:32:32-p272:64:64-i64:64-i128:128-f80:128-n8:16:32:64-S128"
target triple = "x86_64-pc-linux-gnu"

; Function Attrs: nounwind uwtable
define i32 @dt_util_string_count_char(ptr noundef %0, i8 noundef signext %1) #0 {
  %3 = alloca ptr, align 8
  %4 = alloca i8, align 1
  %5 = alloca i32, align 4
  store ptr %0, ptr %3, align 8, !tbaa !6
  store i8 %1, ptr %4, align 1, !tbaa !18
  call void @llvm.lifetime.start.p0(i64 4, ptr %5) #18
  store i32 0, ptr %5, align 4, !tbaa !15
  br label %6

6:                                                ; preds = %22, %2
  %7 = load ptr, ptr %3, align 8, !tbaa !6
  %8 = getelementptr inbounds i8, ptr %7, i64 0
  %9 = load i8, ptr %8, align 1, !tbaa !18
  %10 = icmp ne i8 %9, 0
  br i1 %10, label %11, label %25

11:                                               ; preds = %6
  %12 = load ptr, ptr %3, align 8, !tbaa !6
  %13 = getelementptr inbounds i8, ptr %12, i64 0
  %14 = load i8, ptr %13, align 1, !tbaa !18
  %15 = sext i8 %14 to i32
  %16 = load i8, ptr %4, align 1, !tbaa !18
  %17 = sext i8 %16 to i32
  %18 = icmp eq i32 %15, %17
  br i1 %18, label %19, label %22

19:                                               ; preds = %11
  %20 = load i32, ptr %5, align 4, !tbaa !15
  %21 = add i32 %20, 1
  store i32 %21, ptr %5, align 4, !tbaa !15
  br label %22

22:                                               ; preds = %19, %11
  %23 = load ptr, ptr %3, align 8, !tbaa !6
  %24 = getelementptr inbounds nuw i8, ptr %23, i32 1
  store ptr %24, ptr %3, align 8, !tbaa !6
  br label %6

25:                                               ; preds = %6
  %26 = load i32, ptr %5, align 4, !tbaa !15
  call void @llvm.lifetime.end.p0(i64 4, ptr %5) #18
  ret i32 %26
}