; Function Attrs: nofree norecurse nosync nounwind memory(argmem: read) uwtable
define i32 @dt_util_string_count_char(ptr noundef readonly captures(none) %0, i8 noundef signext %1) local_unnamed_addr #18 {
  %3 = load i8, ptr %0, align 1, !tbaa !11
  %.not7 = icmp eq i8 %3, 0
  br i1 %.not7, label %._crit_edge, label %.lr.ph

.lr.ph:                                           ; preds = %2, %.lr.ph
  %4 = phi i8 [ %8, %.lr.ph ], [ %3, %2 ]
  %.09 = phi i32 [ %spec.select, %.lr.ph ], [ 0, %2 ]
  %.058 = phi ptr [ %7, %.lr.ph ], [ %0, %2 ]
  %5 = icmp eq i8 %4, %1
  %6 = zext i1 %5 to i32
  %spec.select = add i32 %.09, %6
  %7 = getelementptr inbounds nuw i8, ptr %.058, i64 1
  %8 = load i8, ptr %7, align 1, !tbaa !11
  %.not = icmp eq i8 %8, 0
  br i1 %.not, label %._crit_edge, label %.lr.ph

._crit_edge:                                      ; preds = %.lr.ph, %2
  %.0.lcssa = phi i32 [ 0, %2 ], [ %spec.select, %.lr.ph ]
  ret i32 %.0.lcssa
}